target datalayout = "e-m:e-p270:32:32-p271:32:32-p272:64:64-i64:64-i128:128-f80:128-n8:16:32:64-S128"
target triple = "x86_64-pc-linux-gnu"

%struct.nameData = type { [64 x i8] }
%struct.HeapTupleData = type { i32, %struct.ItemPointerData, i32, ptr }
%struct.ItemPointerData = type { %struct.BlockIdData, i16 }
%struct.BlockIdData = type { i16, i16 }
%struct.HeapTupleHeaderData = type { %union.anon, %struct.ItemPointerData, i16, i16, i8, [0 x i8] }
%union.anon = type { %struct.HeapTupleFields }
%struct.HeapTupleFields = type { i32, i32, %union.anon.0 }
%union.anon.0 = type { i32 }
%struct.FormData_pg_ts_config = type { i32, %struct.nameData, i32, i32, i32 }
%struct.ErrorSaveContext = type { i32, i8, i8, ptr }

@.str.2 = private unnamed_addr constant [11 x i8] c"ts_cache.c\00", align 1
@.str.12 = private unnamed_addr constant [53 x i8] c"cache lookup failed for text search configuration %u\00", align 1
@MyDatabaseId = external global i32, align 4
@__const.check_default_text_search_config.escontext = private unnamed_addr constant { i32, i8, i8, [2 x i8], ptr } { i32 446, i8 0, i8 0, [2 x i8] zeroinitializer, ptr null }, align 8
@.str.18 = private unnamed_addr constant [46 x i8] c"text search configuration \22%s\22 does not exist\00", align 1
@__func__.check_default_text_search_config = private unnamed_addr constant [33 x i8] c"check_default_text_search_config\00", align 1

; Function Attrs: inlinehint nounwind uwtable
define internal ptr @GETSTRUCT(ptr noundef %0) #3 {
  %2 = alloca ptr, align 8
  store ptr %0, ptr %2, align 8
  %3 = load ptr, ptr %2, align 8
  %4 = getelementptr inbounds nuw %struct.HeapTupleData, ptr %3, i32 0, i32 3
  %5 = load ptr, ptr %4, align 8
  %6 = load ptr, ptr %2, align 8
  %7 = getelementptr inbounds nuw %struct.HeapTupleData, ptr %6, i32 0, i32 3
  %8 = load ptr, ptr %7, align 8
  %9 = getelementptr inbounds nuw %struct.HeapTupleHeaderData, ptr %8, i32 0, i32 4
  %10 = load i8, ptr %9, align 2
  %11 = zext i8 %10 to i32
  %12 = sext i32 %11 to i64
  %13 = getelementptr inbounds i8, ptr %5, i64 %12
  ret ptr %13
}

; Function Attrs: inlinehint nounwind uwtable
define internal i64 @ObjectIdGetDatum(i32 noundef %0) #3 {
  %2 = alloca i32, align 4
  store i32 %0, ptr %2, align 4
  %3 = load i32, ptr %2, align 4
  %4 = zext i32 %3 to i64
  ret i64 %4
}

; Function Attrs: nounwind uwtable
define dso_local zeroext i1 @check_default_text_search_config(ptr noundef %0, ptr noundef %1, i32 noundef %2) #0 {
  %4 = alloca i1, align 1
  %5 = alloca ptr, align 8
  %6 = alloca ptr, align 8
  %7 = alloca i32, align 4
  %8 = alloca %struct.ErrorSaveContext, align 8
  %9 = alloca ptr, align 8
  %10 = alloca i32, align 4
  %11 = alloca ptr, align 8
  %12 = alloca ptr, align 8
  %13 = alloca ptr, align 8
  %14 = alloca i32, align 4
  store ptr %0, ptr %5, align 8
  store ptr %1, ptr %6, align 8
  store i32 %2, ptr %7, align 4
  %15 = call zeroext i1 @IsTransactionState()
  br i1 %15, label %16, label %95

16:                                               ; preds = %3
  %17 = load i32, ptr @MyDatabaseId, align 4
  %18 = icmp ne i32 %17, 0
  br i1 %18, label %19, label %95

19:                                               ; preds = %16
  call void @llvm.lifetime.start.p0(i64 16, ptr %8) #7
  call void @llvm.memcpy.p0.p0.i64(ptr align 8 %8, ptr align 8 @__const.check_default_text_search_config.escontext, i64 16, i1 false)
  call void @llvm.lifetime.start.p0(i64 8, ptr %9) #7
  call void @llvm.lifetime.start.p0(i64 4, ptr %10) #7
  call void @llvm.lifetime.start.p0(i64 8, ptr %11) #7
  call void @llvm.lifetime.start.p0(i64 8, ptr %12) #7
  call void @llvm.lifetime.start.p0(i64 8, ptr %13) #7
  %20 = load ptr, ptr %5, align 8
  %21 = load ptr, ptr %20, align 8
  %22 = call ptr @stringToQualifiedNameList(ptr noundef %21, ptr noundef %8)
  store ptr %22, ptr %9, align 8
  %23 = load ptr, ptr %9, align 8
  %24 = icmp ne ptr %23, null
  br i1 %24, label %25, label %28

25:                                               ; preds = %19
  %26 = load ptr, ptr %9, align 8
  %27 = call i32 @get_ts_config_oid(ptr noundef %26, i1 noundef zeroext true)
  store i32 %27, ptr %10, align 4
  br label %29

28:                                               ; preds = %19
  store i32 0, ptr %10, align 4
  br label %29

29:                                               ; preds = %28, %25
  %30 = load i32, ptr %10, align 4
  %31 = icmp ne i32 %30, 0
  br i1 %31, label %50, label %32

32:                                               ; preds = %29
  %33 = load i32, ptr %7, align 4
  %34 = icmp eq i32 %33, 12
  br i1 %34, label %35, label %49

35:                                               ; preds = %32
  br label %36

36:                                               ; preds = %35
  br i1 false, label %37, label %39

37:                                               ; preds = %36
  %38 = call zeroext i1 @errstart_cold(i32 noundef 18, ptr noundef null) #8
  br i1 %38, label %41, label %46

39:                                               ; preds = %36
  %40 = call zeroext i1 @errstart(i32 noundef 18, ptr noundef null)
  br i1 %40, label %41, label %46

41:                                               ; preds = %39, %37
  %42 = call i32 @errcode(i32 noundef 67137668)
  %43 = load ptr, ptr %5, align 8
  %44 = load ptr, ptr %43, align 8
  %45 = call i32 (ptr, ...) @errmsg(ptr noundef @.str.18, ptr noundef %44)
  call void @errfinish(ptr noundef @.str.2, i32 noundef 635, ptr noundef @__func__.check_default_text_search_config)
  br label %46

46:                                               ; preds = %41, %39, %37
  br label %47

47:                                               ; preds = %46
  br label %48

48:                                               ; preds = %47
  store i1 true, ptr %4, align 1
  store i32 1, ptr %14, align 4
  br label %92

49:                                               ; preds = %32
  store i1 false, ptr %4, align 1
  store i32 1, ptr %14, align 4
  br label %92

50:                                               ; preds = %29
  %51 = load i32, ptr %10, align 4
  %52 = call i64 @ObjectIdGetDatum(i32 noundef %51)
  %53 = call ptr @SearchSysCache1(i32 noundef 74, i64 noundef %52)
  store ptr %53, ptr %11, align 8
  %54 = load ptr, ptr %11, align 8
  %55 = icmp ne ptr %54, null
  br i1 %55, label %68, label %56

56:                                               ; preds = %50
  br label %57

57:                                               ; preds = %56
  br i1 true, label %58, label %60

58:                                               ; preds = %57
  %59 = call zeroext i1 @errstart_cold(i32 noundef 21, ptr noundef null) #8
  br i1 %59, label %62, label %65

60:                                               ; preds = %57
  %61 = call zeroext i1 @errstart(i32 noundef 21, ptr noundef null)
  br i1 %61, label %62, label %65

62:                                               ; preds = %60, %58
  %63 = load i32, ptr %10, align 4
  %64 = call i32 (ptr, ...) @errmsg_internal(ptr noundef @.str.12, i32 noundef %63)
  call void @errfinish(ptr noundef @.str.2, i32 noundef 649, ptr noundef @__func__.check_default_text_search_config)
  br label %65

65:                                               ; preds = %62, %60, %58
  unreachable

66:                                               ; No predecessors!
  br label %67

67:                                               ; preds = %66
  br label %68

68:                                               ; preds = %67, %50
  %69 = load ptr, ptr %11, align 8
  %70 = call ptr @GETSTRUCT(ptr noundef %69)
  store ptr %70, ptr %12, align 8
  %71 = load ptr, ptr %12, align 8
  %72 = getelementptr inbounds nuw %struct.FormData_pg_ts_config, ptr %71, i32 0, i32 2
  %73 = load i32, ptr %72, align 4
  %74 = call ptr @get_namespace_name(i32 noundef %73)
  %75 = load ptr, ptr %12, align 8
  %76 = getelementptr inbounds nuw %struct.FormData_pg_ts_config, ptr %75, i32 0, i32 1
  %77 = getelementptr inbounds nuw %struct.nameData, ptr %76, i32 0, i32 0
  %78 = getelementptr inbounds [64 x i8], ptr %77, i64 0, i64 0
  %79 = call ptr @quote_qualified_identifier(ptr noundef %74, ptr noundef %78)
  store ptr %79, ptr %13, align 8
  %80 = load ptr, ptr %11, align 8
  call void @ReleaseSysCache(ptr noundef %80)
  %81 = load ptr, ptr %5, align 8
  %82 = load ptr, ptr %81, align 8
  call void @guc_free(ptr noundef %82)
  %83 = load ptr, ptr %13, align 8
  %84 = call ptr @guc_strdup(i32 noundef 15, ptr noundef %83)
  %85 = load ptr, ptr %5, align 8
  store ptr %84, ptr %85, align 8
  %86 = load ptr, ptr %13, align 8
  call void @pfree(ptr noundef %86)
  %87 = load ptr, ptr %5, align 8
  %88 = load ptr, ptr %87, align 8
  %89 = icmp ne ptr %88, null
  br i1 %89, label %91, label %90

90:                                               ; preds = %68
  store i1 false, ptr %4, align 1
  store i32 1, ptr %14, align 4
  br label %92

91:                                               ; preds = %68
  store i32 0, ptr %14, align 4
  br label %92

92:                                               ; preds = %91, %90, %49, %48
  call void @llvm.lifetime.end.p0(i64 8, ptr %13) #7
  call void @llvm.lifetime.end.p0(i64 8, ptr %12) #7
  call void @llvm.lifetime.end.p0(i64 8, ptr %11) #7
  call void @llvm.lifetime.end.p0(i64 4, ptr %10) #7
  call void @llvm.lifetime.end.p0(i64 8, ptr %9) #7
  call void @llvm.lifetime.end.p0(i64 16, ptr %8) #7
  %93 = load i32, ptr %14, align 4
  switch i32 %93, label %98 [
    i32 0, label %94
    i32 1, label %96
  ]

94:                                               ; preds = %92
  br label %95

95:                                               ; preds = %94, %16, %3
  store i1 true, ptr %4, align 1
  br label %96

96:                                               ; preds = %95, %92
  %97 = load i1, ptr %4, align 1
  ret i1 %97

98:                                               ; preds = %92
  unreachable
}