; Function Attrs: nounwind uwtable
define dso_local noundef zeroext i1 @check_default_text_search_config(ptr noundef captures(none) %0, ptr noundef readnone captures(none) %1, i32 noundef %2) local_unnamed_addr #0 {
  %4 = alloca %struct.ErrorSaveContext, align 8
  %5 = tail call zeroext i1 @IsTransactionState() #8
  %6 = load i32, ptr @MyDatabaseId, align 4
  %7 = icmp ne i32 %6, 0
  %or.cond = select i1 %5, i1 %7, i1 false
  br i1 %or.cond, label %8, label %40

8:                                                ; preds = %3
  call void @llvm.lifetime.start.p0(i64 16, ptr nonnull %4) #8
  call void @llvm.memcpy.p0.p0.i64(ptr noundef nonnull align 8 dereferenceable(16) %4, ptr noundef nonnull align 8 dereferenceable(16) @__const.check_default_text_search_config.escontext, i64 16, i1 false)
  %9 = load ptr, ptr %0, align 8
  %10 = call ptr @stringToQualifiedNameList(ptr noundef %9, ptr noundef nonnull %4) #8
  %.not = icmp eq ptr %10, null
  br i1 %.not, label %.thread, label %11

11:                                               ; preds = %8
  %12 = call i32 @get_ts_config_oid(ptr noundef nonnull %10, i1 noundef zeroext true) #8
  %.not24 = icmp eq i32 %12, 0
  br i1 %.not24, label %.thread, label %20

.thread:                                          ; preds = %8, %11
  %13 = icmp eq i32 %2, 12
  br i1 %13, label %14, label %.thread30

14:                                               ; preds = %.thread
  %15 = call zeroext i1 @errstart(i32 noundef 18, ptr noundef null) #8
  br i1 %15, label %16, label %.thread30

16:                                               ; preds = %14
  %17 = call i32 @errcode(i32 noundef 67137668) #8
  %18 = load ptr, ptr %0, align 8
  %19 = call i32 (ptr, ...) @errmsg(ptr noundef nonnull @.str.18, ptr noundef %18) #8
  call void @errfinish(ptr noundef nonnull @.str.2, i32 noundef 635, ptr noundef nonnull @__func__.check_default_text_search_config) #8
  br label %.thread30

20:                                               ; preds = %11
  %21 = zext i32 %12 to i64
  %22 = call ptr @SearchSysCache1(i32 noundef 74, i64 noundef %21) #8
  %.not25 = icmp eq ptr %22, null
  br i1 %.not25, label %23, label %26

23:                                               ; preds = %20
  %24 = call zeroext i1 @errstart_cold(i32 noundef 21, ptr noundef null) #9
  call void @llvm.assume(i1 %24)
  %25 = call i32 (ptr, ...) @errmsg_internal(ptr noundef nonnull @.str.12, i32 noundef %12) #8
  call void @errfinish(ptr noundef nonnull @.str.2, i32 noundef 649, ptr noundef nonnull @__func__.check_default_text_search_config) #8
  unreachable

.thread30:                                        ; preds = %16, %14, %.thread
  call void @llvm.lifetime.end.p0(i64 16, ptr nonnull %4) #8
  br label %41

26:                                               ; preds = %20
  %27 = getelementptr i8, ptr %22, i64 16
  %.val = load ptr, ptr %27, align 8
  %28 = getelementptr inbounds nuw i8, ptr %.val, i64 22
  %29 = load i8, ptr %28, align 2
  %30 = zext i8 %29 to i64
  %31 = getelementptr inbounds nuw i8, ptr %.val, i64 %30
  %32 = getelementptr inbounds nuw i8, ptr %31, i64 68
  %33 = load i32, ptr %32, align 4
  %34 = call ptr @get_namespace_name(i32 noundef %33) #8
  %35 = getelementptr inbounds nuw i8, ptr %31, i64 4
  %36 = call ptr @quote_qualified_identifier(ptr noundef %34, ptr noundef nonnull %35) #8
  call void @ReleaseSysCache(ptr noundef nonnull %22) #8
  %37 = load ptr, ptr %0, align 8
  call void @guc_free(ptr noundef %37) #8
  %38 = call ptr @guc_strdup(i32 noundef 15, ptr noundef %36) #8
  store ptr %38, ptr %0, align 8
  call void @pfree(ptr noundef %36) #8
  %39 = load ptr, ptr %0, align 8
  %.not26.not = icmp eq ptr %39, null
  call void @llvm.lifetime.end.p0(i64 16, ptr nonnull %4) #8
  br i1 %.not26.not, label %41, label %40

40:                                               ; preds = %26, %3
  br label %41

41:                                               ; preds = %.thread30, %26, %40
  %.1 = phi i1 [ false, %26 ], [ true, %40 ], [ %13, %.thread30 ]
  ret i1 %.1
}